; Function Attrs: null_pointer_is_valid sspstrong uwtable
define hidden i32 @atsvc_dissect_bitmap_Flags(ptr noundef %0, i32 noundef %1, ptr noundef %2, ptr noundef %3, ptr noundef %4, ptr noundef %5, i32 noundef %6, i32 noundef %7) local_unnamed_addr #0 {
  %9 = alloca i8, align 1
  call void @llvm.lifetime.start.p0(i64 1, ptr nonnull %9) #3
  %10 = load i32, ptr @ett_atsvc_atsvc_Flags, align 4
  %11 = load i8, ptr %5, align 1
  %12 = and i8 %11, 16
  %13 = zext nneg i8 %12 to i32
  %14 = shl nuw i32 %13, 27
  %15 = tail call ptr @proto_tree_add_bitmask_with_flags(ptr noundef %3, ptr noundef %0, i32 noundef %1, i32 noundef %6, i32 noundef %10, ptr noundef nonnull @atsvc_dissect_bitmap_Flags.atsvc_atsvc_Flags_fields, i32 noundef %14, i32 noundef 4)
  %16 = call i32 @dissect_ndr_uint8(ptr noundef %0, i32 noundef %1, ptr noundef %2, ptr noundef %3, ptr noundef %4, ptr noundef %5, i32 noundef -1, ptr noundef nonnull %9)
  %17 = load i8, ptr %9, align 1
  %.not = icmp eq i8 %17, 0
  br i1 %.not, label %18, label %19

18:                                               ; preds = %8
  call void (ptr, ptr, ...) @proto_item_append_text(ptr noundef %15, ptr noundef nonnull @.str)
  %.pre = load i8, ptr %9, align 1
  br label %19

19:                                               ; preds = %18, %8
  %20 = phi i8 [ %.pre, %18 ], [ %17, %8 ]
  %21 = and i8 %20, -32
  %.not13 = icmp eq i8 %21, 0
  br i1 %.not13, label %24, label %22

22:                                               ; preds = %19
  store i8 %21, ptr %9, align 1
  %23 = zext i8 %21 to i32
  call void (ptr, ptr, ...) @proto_item_append_text(ptr noundef %15, ptr noundef nonnull @.str.1, i32 noundef %23)
  br label %24

24:                                               ; preds = %22, %19
  call void @llvm.lifetime.end.p0(i64 1, ptr nonnull %9) #3
  ret i32 %16
}